(lp1
(lp2
(I0
I0
I255
tp3
ag3
ag3
a(I0
I0
I0
tp4
ag4
ag4
ag4
ag4
ag4
ag4
ag4
ag4
ag4
ag4
ag4
ag4
ag3
ag3
ag3
ag4
ag4
ag4
ag4
ag4
ag4
ag4
ag4
ag4
ag4
ag4
ag4
ag4
ag4
ag4
ag4
ag4
ag4
ag4
ag4
a(I0
I0
I0
tp5
ag5
ag5
ag5
ag5
ag5
ag3
ag3
ag3
ag5
ag5
ag5
ag5
ag5
ag5
ag5
ag5
ag5
ag5
ag5
ag5
ag5
ag3
ag3
ag3
aa(lp6
g3
ag3
ag3
ag4
ag4
ag4
ag4
ag4
ag4
ag4
ag4
ag4
ag4
ag4
ag4
ag4
ag3
ag3
ag3
ag4
ag4
ag4
ag4
ag4
ag4
ag4
ag4
ag4
ag4
ag4
ag4
ag4
ag4
ag4
ag4
ag4
ag4
ag4
ag4
ag5
ag5
ag5
ag5
ag5
ag5
ag3
ag3
ag3
ag5
ag5
ag5
ag5
ag5
ag5
ag5
ag5
ag5
ag5
ag5
ag5
ag5
ag3
ag3
ag3
aa(lp7
g3
ag3
ag3
ag4
ag4
ag4
ag4
ag4
ag4
ag4
ag4
ag4
ag4
ag4
ag4
ag4
ag3
ag3
ag3
ag4
ag4
ag4
ag4
ag4
ag4
ag4
ag4
ag4
ag4
ag4
ag4
ag4
ag4
ag4
ag4
ag4
ag4
ag5
ag5
ag5
ag5
ag5
ag5
ag5
ag5
ag3
ag3
ag3
ag5
ag5
ag5
ag5
ag5
ag5
ag5
ag5
ag5
ag5
ag5
ag5
ag5
ag3
ag3
ag3
aa(lp8
g4
ag4
ag4
a(I255
I0
I0
tp9
ag9
ag9
ag4
ag4
ag4
ag4
ag4
ag4
ag4
ag4
ag4
ag4
ag4
ag4
ag4
a(I0
I255
I0
tp10
ag10
ag10
ag4
ag4
ag4
ag4
ag4
ag4
ag4
ag4
ag4
ag4
ag4
ag5
ag5
ag5
ag5
ag5
ag5
ag5
ag5
ag5
ag10
ag10
ag10
ag5
ag5
ag5
ag5
ag5
ag5
ag5
ag4
ag5
ag5
ag5
ag5
ag5
ag9
ag9
ag9
ag5
ag5
ag5
aa(lp11
(I0
I0
I0
tp12
ag12
ag12
ag9
ag9
ag9
ag4
ag4
ag4
ag4
ag4
ag4
ag4
ag4
ag4
ag4
ag4
ag4
ag4
ag10
ag10
ag10
ag4
ag4
ag4
ag4
ag4
ag4
ag4
ag4
ag4
ag4
ag5
ag5
ag5
ag5
ag5
ag5
ag5
ag5
ag5
ag5
ag10
ag10
ag10
ag5
ag5
ag5
ag5
ag4
ag4
ag4
ag4
ag5
ag5
ag5
ag5
ag5
ag9
ag9
ag9
ag5
ag5
ag5
aa(lp13
g12
ag12
ag12
ag9
ag9
ag9
ag12
ag12
ag12
ag4
ag4
ag4
ag4
ag4
ag4
ag4
ag4
ag4
ag4
ag10
ag10
ag10
ag4
ag4
ag4
ag4
ag4
ag4
ag4
ag4
ag4
ag5
ag5
ag5
ag5
ag5
ag5
ag5
ag5
ag5
ag5
ag5
ag10
ag10
ag10
ag4
a(I0
I0
I0
tp14
ag4
ag4
ag4
ag4
ag4
ag4
ag5
ag5
ag5
ag5
ag5
ag9
ag9
ag9
ag5
ag5
ag4
aa(lp15
g12
ag12
ag12
ag12
ag12
ag12
ag10
ag10
ag10
ag12
ag12
ag12
ag12
ag12
ag12
ag12
ag12
ag12
ag12
ag12
ag12
ag12
ag9
ag9
ag9
ag5
ag5
ag5
ag5
ag5
ag5
ag5
ag5
ag5
ag5
ag5
ag5
ag5
ag5
ag9
ag9
ag9
ag4
ag4
ag4
ag4
ag4
ag4
ag4
ag4
ag4
ag4
ag4
ag5
ag5
ag10
ag10
ag10
ag5
ag5
ag5
ag5
ag5
ag4
aa(lp16
g12
ag12
ag12
ag12
ag12
ag12
ag10
ag10
ag10
ag12
ag12
ag5
ag5
ag5
ag5
ag12
ag12
a(I0
I0
I255
tp17
ag12
ag12
ag12
ag12
ag9
ag9
ag9
ag5
ag5
ag5
ag5
ag5
ag5
ag5
ag5
ag5
ag5
ag5
ag5
ag12
ag12
ag9
ag9
ag9
ag4
ag4
ag4
ag4
ag4
ag4
ag4
ag4
ag4
ag4
ag4
ag5
ag5
ag10
ag10
ag10
ag5
ag5
ag5
ag5
ag5
ag5
aa(lp18
g12
ag12
ag12
ag12
ag12
ag12
ag10
ag10
ag10
ag12
ag5
ag5
ag5
ag5
ag5
ag12
ag12
ag17
ag17
ag12
ag12
ag12
ag9
ag9
ag9
ag5
ag5
ag5
ag5
ag5
ag5
ag5
ag5
ag12
ag12
ag12
ag12
ag12
ag12
ag9
ag9
ag9
ag4
ag4
ag4
ag4
ag4
ag4
ag4
ag4
ag4
ag4
ag4
ag4
ag5
ag10
ag10
ag10
ag5
ag5
ag5
ag5
ag5
ag5
aa(lp19
g12
ag12
ag12
ag12
ag12
ag12
ag12
ag12
ag12
a(I255
I255
I0
tp20
ag20
ag20
ag5
ag5
ag5
ag4
ag12
ag12
ag17
ag12
ag12
ag12
ag12
ag5
ag5
a(I255
I255
I255
tp21
ag21
ag21
ag5
ag5
ag5
ag5
ag5
ag12
ag12
ag12
ag21
ag21
ag21
ag12
ag12
ag12
ag12
ag12
ag12
ag12
ag12
ag4
ag4
ag4
ag4
ag4
ag20
ag20
ag20
ag5
ag5
ag5
ag5
ag5
ag5
ag5
ag5
ag5
aa(lp22
g12
ag12
ag12
ag12
ag12
ag12
ag12
ag12
ag5
ag20
ag20
ag20
ag5
ag5
ag5
ag12
ag12
ag12
ag17
ag17
ag17
ag17
ag5
ag5
ag5
ag21
ag21
ag21
ag5
ag5
ag5
ag5
ag12
ag12
ag12
ag12
ag21
ag21
ag21
ag12
ag12
ag12
ag12
ag12
ag12
ag5
ag5
ag5
ag5
ag5
ag5
ag5
ag20
ag20
ag20
ag5
ag5
ag5
ag5
ag5
ag5
ag5
ag5
ag5
aa(lp23
g12
ag12
ag12
ag12
ag12
ag12
ag12
ag12
ag5
ag20
ag20
ag20
ag5
ag5
ag5
ag12
ag12
ag12
ag17
ag17
ag17
ag12
ag5
ag5
ag5
ag21
ag21
ag21
ag5
ag12
ag12
ag12
ag12
ag12
ag12
ag12
ag21
ag21
ag21
ag12
ag12
ag12
ag12
ag12
ag12
ag5
ag5
ag5
ag5
ag5
ag5
ag5
ag20
ag20
ag20
ag5
ag5
ag5
ag5
ag5
ag5
ag5
ag5
ag12
aa(lp24
g12
ag12
ag12
ag12
ag12
a(I255
I255
I255
tp25
ag25
ag12
ag5
ag5
ag5
ag5
a(I0
I255
I255
tp26
ag26
ag26
ag5
ag12
ag12
ag17
ag5
ag17
ag17
ag5
ag5
ag5
ag5
ag5
ag5
ag26
ag26
ag26
ag12
ag12
ag26
a(I0
I0
I0
tp27
ag26
a(I0
I0
I0
tp28
ag28
ag28
ag28
ag28
ag12
ag12
ag12
ag12
ag5
ag5
ag5
ag5
ag26
ag26
ag26
ag5
ag5
ag5
ag5
ag5
ag5
ag5
ag5
ag5
ag5
ag5
ag12
aa(lp29
g12
ag12
ag12
ag25
ag25
ag12
ag12
ag12
ag5
ag5
ag5
ag5
ag26
ag26
ag26
ag5
ag12
ag12
ag17
ag5
ag5
ag5
ag5
ag5
ag5
ag5
ag5
ag5
ag26
ag5
ag26
ag12
ag12
ag26
ag5
ag26
ag28
ag28
ag28
ag28
ag28
ag12
ag12
ag12
ag5
ag5
ag5
ag5
ag5
ag26
ag26
ag26
ag5
ag5
ag5
ag5
ag5
ag5
ag5
ag5
ag5
ag5
ag12
ag12
aa(lp30
g12
ag12
ag12
ag12
ag12
ag12
ag12
ag12
ag5
ag5
ag5
ag5
ag26
ag26
ag26
ag5
ag5
ag12
ag5
ag17
ag17
ag17
ag17
ag17
ag5
ag5
ag5
ag5
ag26
ag26
ag26
ag12
ag28
ag26
ag26
ag26
ag28
ag28
ag28
ag28
ag28
ag28
ag5
ag5
ag5
ag5
ag5
ag5
ag5
ag26
ag26
ag26
ag5
ag5
ag5
ag5
ag5
ag5
a(I0
I0
I0
tp31
ag31
ag31
ag12
ag12
ag12
aa(lp32
g12
ag12
ag12
ag12
ag12
ag12
ag12
ag12
ag5
ag5
ag5
ag5
ag5
ag5
ag5
ag21
ag21
ag21
ag5
ag5
ag5
ag5
ag5
ag5
ag5
ag5
ag5
ag5
ag5
ag5
a(I255
I0
I255
tp33
ag33
ag33
ag33
ag5
ag5
ag5
ag28
ag28
ag28
ag5
ag5
ag5
ag5
ag5
ag5
ag21
ag21
ag21
ag5
ag5
ag5
ag5
ag5
ag5
ag5
ag5
ag5
ag31
ag31
ag31
ag12
ag12
ag12
aa(lp34
g12
ag12
ag12
ag12
ag12
ag12
ag12
ag12
ag5
ag5
ag5
ag5
ag5
ag5
ag5
ag21
ag21
ag21
ag5
ag5
ag5
ag5
ag5
ag5
ag5
ag5
ag5
ag5
ag5
ag5
ag33
ag5
ag5
ag33
ag5
ag5
ag5
ag5
ag28
ag5
ag5
ag5
ag5
ag5
ag5
ag5
ag21
ag21
ag21
ag5
ag5
ag5
ag5
ag5
ag5
ag5
ag5
ag12
ag31
ag31
ag31
ag12
ag12
ag12
aa(lp35
g12
ag12
ag12
ag12
ag12
ag12
ag12
ag12
ag5
ag5
ag5
ag5
ag5
ag5
ag5
ag21
ag21
ag21
ag5
ag5
ag5
ag5
ag5
ag5
ag5
ag5
ag5
ag5
ag5
ag5
ag33
ag33
ag33
ag33
ag5
ag5
ag5
ag5
ag5
ag5
ag5
ag5
ag5
ag5
ag5
ag5
ag21
ag21
ag21
ag5
ag5
ag5
ag5
ag5
ag5
ag5
ag12
ag12
ag31
ag31
ag31
ag12
ag12
ag12
aa(lp36
g12
ag12
ag12
ag12
ag12
ag12
a(I255
I255
I0
tp37
ag37
ag12
ag5
ag5
ag5
ag5
ag5
ag5
ag5
ag5
ag5
ag9
ag9
ag9
ag5
ag5
ag37
ag37
ag37
ag5
ag20
ag20
ag20
ag9
ag21
ag21
ag9
ag20
ag20
ag20
ag5
ag5
ag5
ag5
a(I0
I255
I0
tp38
ag5
ag9
ag9
ag9
ag5
ag5
ag5
ag5
ag5
ag5
ag5
ag5
ag5
ag5
a(I0
I0
I0
tp39
ag39
ag31
ag31
ag31
ag12
ag12
ag12
aa(lp40
g12
ag12
ag12
ag12
ag12
ag37
ag37
a(I255
I255
I255
tp41
ag41
ag5
ag5
ag5
ag5
ag5
ag5
ag5
ag5
ag5
ag9
ag9
ag9
ag5
ag5
ag5
ag5
ag5
ag37
ag20
ag20
ag20
ag26
ag10
ag3
ag26
ag20
ag20
ag20
ag5
ag5
ag5
ag5
ag5
ag5
ag9
ag9
ag9
ag5
ag5
ag5
ag5
ag5
ag5
ag5
ag39
ag39
ag39
ag39
a(I0
I0
I0
tp42
ag42
ag42
ag31
ag12
ag12
ag12
aa(lp43
g12
ag12
ag12
ag12
ag12
ag37
ag12
ag41
ag12
ag5
ag41
ag41
ag37
ag5
ag5
ag5
ag5
ag5
ag9
ag9
ag9
ag5
ag5
ag5
ag5
ag5
ag5
ag20
ag20
ag20
ag26
ag20
ag20
a(I0
I0
I0
tp44
ag20
ag44
ag20
ag5
ag5
ag5
ag5
ag5
ag5
ag9
ag9
ag9
ag5
ag5
ag5
ag5
ag5
ag5
ag5
ag39
ag39
ag39
ag39
ag42
ag42
ag42
ag31
ag12
ag12
ag12
aa(lp45
g12
ag12
ag12
ag12
ag12
ag37
ag12
ag41
ag12
ag5
ag41
ag41
ag41
ag41
ag5
ag5
ag5
ag5
ag5
ag5
ag5
ag10
ag10
ag10
ag3
ag3
ag3
ag9
ag37
ag44
ag26
ag33
ag33
ag27
ag26
ag26
ag9
ag3
ag3
ag3
ag10
ag10
ag44
ag5
ag5
ag5
ag5
ag5
ag5
ag5
ag5
ag5
ag39
ag39
ag39
ag39
ag39
ag42
ag42
ag42
ag31
ag12
ag12
ag12
aa(lp46
g12
ag12
ag12
ag12
ag12
ag37
ag12
ag41
ag12
ag41
ag41
ag41
ag41
ag12
ag5
ag5
ag5
ag5
ag5
ag5
ag5
ag10
ag10
ag10
ag3
ag3
ag44
ag44
ag37
ag26
ag26
ag26
ag26
ag26
ag26
ag3
ag21
ag3
ag3
ag3
ag44
ag10
ag10
ag5
ag5
ag5
ag5
ag5
ag5
ag5
ag5
ag5
ag39
ag39
ag39
ag39
ag39
ag42
ag42
ag42
ag12
ag12
ag12
ag12
aa(lp47
g12
ag12
ag12
ag12
ag12
ag37
ag12
ag41
ag41
ag41
ag37
ag12
ag41
ag12
ag5
ag5
ag5
ag5
ag5
ag5
ag5
ag10
ag10
ag10
ag3
ag3
ag3
ag21
ag37
ag20
ag33
ag44
ag44
ag33
ag20
ag21
ag21
ag3
ag3
ag44
ag10
ag10
ag10
ag5
ag5
ag5
ag5
ag5
ag39
ag39
ag39
ag39
ag39
ag39
ag39
ag39
ag39
ag42
ag42
ag42
ag12
ag12
ag12
ag12
aa(lp48
g12
ag12
ag12
ag12
ag12
ag37
ag37
ag41
ag41
ag41
ag37
ag12
ag41
ag12
ag5
ag5
ag5
ag5
ag5
ag5
ag21
ag10
a(I0
I0
I0
tp49
ag49
ag49
ag49
ag3
ag37
ag21
ag20
ag33
ag44
ag26
ag33
ag44
ag21
ag21
ag3
ag49
ag49
ag49
ag49
ag44
ag5
ag5
ag5
ag5
ag5
ag39
ag39
ag39
ag39
ag39
ag39
ag39
ag39
ag39
ag42
ag42
ag42
ag12
ag12
ag12
ag12
aa(lp50
g12
ag12
ag12
ag12
ag12
ag12
ag37
ag37
ag41
ag41
ag41
ag41
ag41
ag37
ag37
ag37
ag37
ag37
ag12
ag26
ag5
ag10
ag10
ag10
ag3
ag3
ag3
ag37
ag10
ag26
ag26
ag26
ag26
ag26
ag26
ag10
ag21
ag44
ag44
ag44
ag10
ag10
ag10
ag5
ag5
ag5
ag5
ag5
ag39
ag39
ag39
ag39
ag39
ag39
ag39
ag39
a(I0
I0
I0
tp51
ag42
ag42
ag42
ag12
ag12
ag12
ag12
aa(lp52
g12
ag12
ag12
ag12
ag12
ag12
ag12
ag12
ag41
ag41
ag12
ag12
ag41
ag37
ag12
ag12
ag12
ag37
ag37
ag12
ag12
ag10
ag10
ag10
ag3
ag3
ag37
ag9
ag26
ag26
ag26
ag33
ag44
ag26
ag26
ag26
ag9
ag3
ag3
ag44
ag44
ag10
ag10
ag5
ag5
ag5
ag5
ag5
ag5
ag39
ag39
ag39
ag39
ag39
ag39
ag39
ag12
ag12
ag12
ag12
ag12
ag12
ag12
ag12
aa(lp53
g12
ag12
ag12
ag12
ag12
ag12
ag12
ag12
ag41
ag41
ag41
ag12
ag41
ag37
ag12
ag12
ag12
ag20
ag37
ag37
ag37
ag12
ag12
ag21
ag12
ag37
ag5
ag20
ag20
ag20
ag26
ag20
ag20
ag26
ag20
ag20
ag20
ag5
ag5
ag5
ag5
ag5
ag5
ag9
ag9
ag9
ag5
ag5
ag5
ag28
ag28
ag28
ag28
ag12
ag12
ag12
ag12
ag12
ag12
ag12
ag12
ag12
ag12
ag12
aa(lp54
g12
ag12
ag12
ag12
ag12
ag12
ag12
ag12
ag41
ag12
ag41
ag41
ag37
ag37
ag12
ag12
ag3
ag12
ag9
ag37
ag9
ag37
ag37
ag37
ag37
ag12
ag5
ag20
ag20
ag20
ag26
ag10
ag3
ag26
ag20
ag20
ag20
ag5
ag5
ag5
ag5
ag5
ag5
ag9
ag9
ag9
ag5
ag5
ag5
ag12
ag12
ag12
ag12
ag12
ag12
ag12
ag12
ag12
ag12
ag12
ag12
ag12
ag12
ag12
aa(lp55
g12
ag12
ag12
ag12
ag12
ag12
ag12
ag12
ag12
ag41
ag41
ag12
ag41
ag12
ag12
ag10
ag12
ag12
ag9
ag9
ag9
ag33
ag12
ag12
ag12
ag12
ag5
ag20
ag20
ag20
ag9
ag21
ag21
ag9
ag20
ag20
ag20
ag5
ag5
ag5
ag5
ag5
ag5
ag9
ag9
ag9
ag5
ag5
ag5
ag12
ag12
ag12
ag12
ag12
ag12
ag12
ag12
ag12
ag12
ag12
ag12
ag12
ag12
ag12
aa(lp56
g12
ag12
ag12
ag12
ag12
ag12
ag12
ag12
ag12
ag12
ag41
ag12
ag41
ag12
ag9
ag21
ag21
ag21
ag12
ag12
ag20
ag12
ag12
ag12
ag12
ag12
ag5
ag5
ag5
ag5
ag33
ag33
ag33
ag33
ag5
ag5
ag5
ag5
ag5
ag5
ag5
ag5
ag5
ag5
ag5
ag5
ag21
ag21
ag21
ag12
ag12
ag12
ag12
ag12
ag12
ag12
ag12
ag12
ag12
ag12
ag12
ag12
ag12
ag12
aa(lp57
g12
ag12
ag12
ag12
ag12
ag12
ag12
ag12
ag12
ag12
ag41
ag12
ag12
ag21
ag12
ag21
ag21
ag21
ag12
ag3
ag12
ag12
ag12
ag12
ag12
ag12
ag12
ag12
ag12
ag12
ag33
ag33
ag33
ag33
ag5
ag5
ag5
ag5
ag5
ag5
ag5
ag5
ag5
ag5
ag5
ag5
ag21
ag21
ag21
ag5
ag12
ag12
ag12
ag12
ag12
ag12
ag12
ag12
ag12
ag12
ag12
ag12
ag12
ag12
aa(lp58
g12
ag12
ag12
ag12
ag12
ag12
ag41
ag41
ag41
ag41
ag41
ag41
ag26
ag12
ag12
ag21
ag21
ag21
ag10
ag12
ag12
ag12
ag12
ag12
ag12
ag12
ag12
ag12
ag12
ag12
ag33
ag33
ag33
ag33
ag5
ag5
ag5
ag5
ag5
ag5
ag5
ag5
ag5
ag5
ag5
ag5
ag21
ag21
ag21
ag5
ag5
ag5
ag5
ag12
ag12
ag12
ag12
ag12
ag12
ag12
ag12
ag12
ag12
ag12
aa(lp59
g12
ag12
ag12
ag12
ag12
ag41
ag41
ag12
ag12
ag12
ag41
ag41
ag26
ag26
ag26
ag12
ag12
ag9
ag12
ag12
ag12
ag12
ag12
ag12
ag12
ag12
ag12
ag12
ag26
ag26
ag26
ag12
ag12
ag26
ag26
ag26
ag5
ag5
ag5
ag5
ag5
ag5
ag5
ag5
ag5
ag5
ag5
ag5
ag5
ag26
ag26
ag26
ag5
ag5
ag5
ag5
ag5
ag5
ag12
ag12
ag12
ag12
ag12
ag12
aa(lp60
g12
ag12
ag12
ag12
ag12
ag41
ag12
ag12
ag12
ag41
ag41
ag12
ag26
ag26
ag26
ag12
ag21
ag12
ag12
ag12
ag12
ag12
ag12
ag12
ag12
ag12
ag12
ag12
ag26
ag26
ag26
ag12
ag12
ag26
ag26
ag26
ag12
ag5
ag5
ag5
ag5
ag5
ag5
ag5
ag5
ag5
ag5
ag5
ag5
ag26
ag26
ag26
ag5
ag5
ag5
ag5
ag5
ag5
ag5
ag5
ag12
ag12
ag12
ag12
aa(lp61
g12
ag12
ag12
ag12
ag12
ag41
ag41
ag41
ag41
ag3
ag12
ag12
ag26
ag26
ag26
ag26
ag12
ag12
ag12
ag12
ag12
ag12
ag12
ag12
ag12
ag12
ag12
ag12
ag26
ag26
ag26
ag12
ag12
ag26
ag26
ag26
ag12
ag5
ag5
ag5
ag5
ag5
ag5
ag5
ag5
ag5
ag5
ag5
ag5
ag26
ag26
ag26
ag5
ag5
ag5
ag5
ag5
ag5
ag5
ag5
ag12
ag12
ag12
ag12
aa(lp62
g12
ag12
ag12
ag12
ag12
ag12
ag12
ag5
ag10
ag20
ag20
ag20
ag12
ag12
ag33
ag12
ag12
ag12
ag12
ag12
ag12
ag12
ag12
ag12
ag12
ag21
ag21
ag21
ag12
ag12
ag12
ag12
ag12
ag12
ag12
ag12
ag21
ag21
ag21
ag5
ag5
ag5
ag5
ag5
ag5
ag5
ag5
ag5
ag5
ag5
ag5
ag5
ag20
ag20
ag20
ag5
ag5
ag5
ag5
ag5
ag12
ag12
ag12
ag12
aa(lp63
g12
ag12
ag12
ag12
ag12
ag12
ag12
ag9
ag12
ag20
ag20
ag20
ag12
ag20
ag12
ag12
ag12
ag12
ag12
ag12
ag12
ag12
ag12
ag12
ag12
ag21
ag21
ag21
ag12
ag12
ag12
ag12
ag12
ag12
ag12
ag12
ag21
ag21
ag21
ag12
ag12
ag12
ag12
ag12
ag5
ag5
ag5
ag5
ag5
ag5
ag5
ag5
ag20
ag20
ag20
ag5
ag5
ag5
ag5
ag5
ag12
ag12
ag12
ag12
aa(lp64
g12
ag12
ag12
ag12
ag12
ag12
ag21
ag12
ag12
ag20
ag20
ag20
ag3
ag12
ag12
ag12
ag12
ag12
ag12
ag12
ag12
ag12
ag12
ag12
ag12
ag21
ag21
ag21
ag12
ag12
ag12
ag12
ag12
ag12
ag12
ag12
ag21
ag21
ag21
ag12
ag12
ag12
ag12
ag12
ag12
ag12
ag12
ag5
ag5
ag5
ag5
ag5
ag20
ag20
ag20
ag5
ag5
ag5
ag5
ag5
ag5
ag12
ag12
ag12
aa(lp65
g12
ag12
ag12
ag12
ag12
ag26
ag10
ag10
ag10
ag12
ag12
ag10
ag12
ag12
ag12
ag12
ag12
ag12
ag12
ag12
ag12
ag12
ag9
ag9
ag9
ag12
ag12
ag12
ag12
ag12
ag12
ag12
ag12
ag12
ag12
ag12
ag12
ag12
ag12
ag9
ag9
ag9
ag12
ag12
ag12
ag12
ag12
ag5
ag5
ag5
ag5
ag5
ag5
ag5
ag5
ag10
ag10
ag10
ag5
ag5
ag5
ag12
ag12
ag12
aa(lp66
g12
ag12
ag12
ag12
ag33
ag12
ag10
ag10
ag10
ag12
ag9
ag12
ag12
ag12
ag12
ag12
ag12
ag12
ag12
ag12
ag12
ag12
ag9
ag9
ag9
ag12
ag12
ag12
ag12
ag12
ag12
ag12
ag12
ag12
ag12
ag12
ag12
ag12
ag12
ag9
ag9
ag9
ag12
ag12
ag12
ag12
ag12
ag12
ag12
ag12
ag12
ag12
ag12
ag12
ag5
ag10
ag10
ag10
ag5
ag5
ag5
ag12
ag12
ag12
aa(lp67
g12
ag12
ag12
ag20
ag12
ag12
ag10
ag10
ag10
ag21
ag12
ag12
ag12
ag12
ag12
ag12
ag12
ag12
ag12
ag12
ag12
ag12
ag9
ag9
ag9
ag12
ag12
ag12
ag12
ag12
ag12
ag12
ag12
ag12
ag12
ag12
ag12
ag12
ag12
ag9
ag9
ag9
ag12
ag12
ag12
ag12
ag12
ag12
ag12
ag12
ag12
ag12
ag12
ag12
ag12
ag10
ag10
ag10
ag5
ag5
ag5
ag12
ag12
ag12
aa(lp68
g12
ag12
ag3
ag9
ag9
ag9
ag12
ag12
ag26
ag12
ag12
ag12
ag12
ag12
ag12
ag12
ag12
ag12
ag12
ag10
ag10
ag10
ag12
ag12
ag12
ag12
ag12
ag12
ag12
ag12
ag12
ag12
ag12
ag12
ag12
ag12
ag12
ag12
ag12
ag12
ag12
ag12
ag10
ag10
ag10
ag12
ag12
ag12
ag12
ag12
ag12
ag12
ag12
ag12
ag12
ag12
ag12
ag12
ag9
ag9
ag9
ag12
ag12
ag12
aa(lp69
g12
ag10
ag12
ag9
ag9
ag9
ag12
ag33
ag12
ag12
ag12
ag12
ag12
ag12
ag12
ag12
ag12
ag12
ag12
ag10
ag10
ag10
ag12
ag12
ag12
ag12
ag12
ag12
ag12
ag12
ag12
ag12
ag12
ag12
ag12
ag12
ag12
ag12
ag12
ag12
ag12
ag12
ag10
ag10
ag10
ag12
ag12
ag12
ag12
ag12
ag12
ag12
ag12
ag12
ag12
ag12
ag12
ag12
ag9
ag9
ag9
ag12
ag12
ag12
aa(lp70
g9
ag12
ag12
ag9
ag9
ag9
ag20
ag12
ag12
ag12
ag12
ag12
ag12
ag12
ag12
ag12
ag12
ag12
ag12
ag10
ag10
ag10
ag12
ag12
ag12
ag12
ag12
ag12
ag12
ag12
ag12
ag12
ag12
ag12
ag12
ag12
ag12
ag12
ag12
ag12
ag12
ag12
ag10
ag10
ag10
ag12
ag12
ag12
ag12
ag12
ag12
ag12
ag12
ag12
ag12
ag12
ag12
ag12
ag9
ag9
ag9
ag12
ag12
ag12
aa(lp71
g3
ag3
ag3
ag12
ag12
ag3
ag12
ag12
ag12
ag12
ag12
ag12
ag12
ag12
ag12
ag12
ag3
ag3
ag3
ag12
ag12
ag12
ag12
ag12
ag12
ag12
ag12
ag12
ag12
ag12
ag12
ag12
ag12
ag12
ag12
ag12
ag12
ag12
ag12
ag12
ag12
ag12
ag12
ag12
ag12
ag3
ag3
ag3
ag12
ag12
ag12
ag12
ag12
ag12
ag12
ag12
ag12
ag12
ag12
ag12
ag12
ag3
ag3
ag3
aa(lp72
g3
ag3
ag3
ag12
ag10
ag12
ag12
ag12
ag12
ag12
ag12
ag12
ag12
ag12
ag12
ag12
ag3
ag3
ag3
ag12
ag12
ag12
ag12
ag12
ag12
ag12
ag12
ag12
ag12
ag12
ag12
ag12
ag12
ag12
ag12
ag12
ag12
ag12
ag12
ag12
ag12
ag12
ag12
ag12
ag12
ag3
ag3
ag3
ag12
ag12
ag12
ag12
ag12
ag12
ag12
ag12
ag12
ag12
ag12
ag12
ag12
ag3
ag3
ag3
aa(lp73
g3
ag3
ag3
ag9
ag12
ag12
ag12
ag12
ag12
ag12
ag12
ag12
ag12
ag12
ag12
ag12
ag3
ag3
ag3
ag12
ag12
ag12
ag12
ag12
ag12
ag12
ag12
ag12
ag12
ag12
ag12
ag12
ag12
ag12
ag12
ag12
ag12
ag12
ag12
ag12
ag12
ag12
ag12
ag12
ag12
ag3
ag3
ag3
ag12
ag12
ag12
ag12
ag12
ag12
ag12
ag12
ag12
ag12
ag12
ag12
ag12
ag3
ag3
ag3
aa.